; Function Attrs: mustprogress uwtable
define internal fastcc noundef ptr @"_ZSt13__upper_boundIPPN4pkpy8PyObjectES2_N9__gnu_cxx5__ops14_Val_comp_iterIZZNS0_15__init_builtinsEPNS0_2VMEENK5$_110clES8_NS0_8ArgsViewEEUlS2_S2_E0_EEET_SD_SD_RKT0_T1_"(ptr noundef %0, ptr noundef %1, ptr nocapture noundef nonnull readonly align 8 dereferenceable(8) %2, ptr %3, ptr %4) unnamed_addr #4 {
  %6 = ptrtoint ptr %1 to i64
  %7 = ptrtoint ptr %0 to i64
  %8 = sub i64 %6, %7
  %9 = ashr exact i64 %8, 3
  %10 = icmp sgt i64 %9, 0
  br i1 %10, label %_ZSt7advanceIPPN4pkpy8PyObjectElEvRT_T0_.exit.lr.ph, label %._crit_edge

_ZSt7advanceIPPN4pkpy8PyObjectElEvRT_T0_.exit.lr.ph: ; preds = %5
  %11 = getelementptr inbounds i8, ptr %3, i64 264296
  %12 = load ptr, ptr @_ZN4pkpy7PY_NULLE, align 8
  br label %_ZSt7advanceIPPN4pkpy8PyObjectElEvRT_T0_.exit

_ZSt7advanceIPPN4pkpy8PyObjectElEvRT_T0_.exit:    ; preds = %_ZSt7advanceIPPN4pkpy8PyObjectElEvRT_T0_.exit.lr.ph, %_ZSt7advanceIPPN4pkpy8PyObjectElEvRT_T0_.exit
  %.020 = phi ptr [ %0, %_ZSt7advanceIPPN4pkpy8PyObjectElEvRT_T0_.exit.lr.ph ], [ %.1, %_ZSt7advanceIPPN4pkpy8PyObjectElEvRT_T0_.exit ]
  %.01119 = phi i64 [ %9, %_ZSt7advanceIPPN4pkpy8PyObjectElEvRT_T0_.exit.lr.ph ], [ %.112, %_ZSt7advanceIPPN4pkpy8PyObjectElEvRT_T0_.exit ]
  %13 = lshr i64 %.01119, 1
  %14 = getelementptr inbounds ptr, ptr %.020, i64 %13
  %.val = load ptr, ptr %2, align 8
  %.val13 = load ptr, ptr %14, align 8
  %15 = load ptr, ptr %11, align 8
  %16 = getelementptr inbounds i8, ptr %15, i64 8
  store ptr %16, ptr %11, align 8
  store ptr %4, ptr %15, align 8
  %17 = load ptr, ptr %11, align 8
  %18 = getelementptr inbounds i8, ptr %17, i64 8
  store ptr %18, ptr %11, align 8
  store ptr %12, ptr %17, align 8
  %19 = load ptr, ptr %11, align 8
  %20 = getelementptr inbounds i8, ptr %19, i64 8
  store ptr %20, ptr %11, align 8
  store ptr %.val, ptr %19, align 8
  %21 = tail call noundef ptr @_ZN4pkpy2VM10vectorcallEiib(ptr noundef nonnull align 8 dereferenceable(264913) %3, i32 noundef 1, i32 noundef 0, i1 noundef zeroext false)
  %22 = load ptr, ptr %11, align 8
  %23 = getelementptr inbounds i8, ptr %22, i64 8
  store ptr %23, ptr %11, align 8
  store ptr %4, ptr %22, align 8
  %24 = load ptr, ptr %11, align 8
  %25 = getelementptr inbounds i8, ptr %24, i64 8
  store ptr %25, ptr %11, align 8
  store ptr %12, ptr %24, align 8
  %26 = load ptr, ptr %11, align 8
  %27 = getelementptr inbounds i8, ptr %26, i64 8
  store ptr %27, ptr %11, align 8
  store ptr %.val13, ptr %26, align 8
  %28 = tail call noundef ptr @_ZN4pkpy2VM10vectorcallEiib(ptr noundef nonnull align 8 dereferenceable(264913) %3, i32 noundef 1, i32 noundef 0, i1 noundef zeroext false)
  %29 = tail call noundef zeroext i1 @_ZN4pkpy2VM5py_ltEPNS_8PyObjectES2_(ptr noundef nonnull align 8 dereferenceable(264913) %3, ptr noundef %21, ptr noundef %28)
  %30 = getelementptr inbounds i8, ptr %14, i64 8
  %31 = xor i64 %13, -1
  %32 = add nsw i64 %.01119, %31
  %.112 = select i1 %29, i64 %13, i64 %32
  %.1 = select i1 %29, ptr %.020, ptr %30
  %33 = icmp sgt i64 %.112, 0
  br i1 %33, label %_ZSt7advanceIPPN4pkpy8PyObjectElEvRT_T0_.exit, label %._crit_edge, !llvm.loop !115

._crit_edge:                                      ; preds = %_ZSt7advanceIPPN4pkpy8PyObjectElEvRT_T0_.exit, %5
  %.0.lcssa = phi ptr [ %0, %5 ], [ %.1, %_ZSt7advanceIPPN4pkpy8PyObjectElEvRT_T0_.exit ]
  ret ptr %.0.lcssa
}